target datalayout = "e-m:e-p270:32:32-p271:32:32-p272:64:64-i64:64-i128:128-f80:128-n8:16:32:64-S128"
target triple = "x86_64-pc-linux-gnu"

%struct.Aig_Obj_t_ = type { %union.anon, ptr, ptr, i64, i32, i32, %union.anon.0 }
%union.anon = type { ptr }
%union.anon.0 = type { ptr }
%struct.Aig_Man_t_ = type { ptr, ptr, ptr, ptr, ptr, ptr, ptr, %struct.Aig_Obj_t_, i32, i32, i32, i32, i32, i32, [7 x i32], i32, ptr, i32, ptr, i32, ptr, i32, i32, i32, ptr, i32, i32, i32, i32, i32, ptr, ptr, i32, ptr, ptr, i32, ptr, ptr, i32, i32, i32, ptr, ptr, ptr, ptr, ptr, ptr, ptr, ptr, ptr, ptr, ptr, ptr, ptr, ptr, i32, ptr, ptr, ptr, ptr, i32, i64, i64, i64, ptr, ptr }
%struct.Vec_Ptr_t_ = type { i32, i32, ptr }

; Function Attrs: inlinehint nounwind uwtable
define internal i32 @Aig_IsComplement(ptr noundef %0) #2 {
  %2 = alloca ptr, align 8
  store ptr %0, ptr %2, align 8, !tbaa !8
  %3 = load ptr, ptr %2, align 8, !tbaa !8
  %4 = ptrtoint ptr %3 to i64
  %5 = and i64 %4, 1
  %6 = trunc i64 %5 to i32
  ret i32 %6
}

; Function Attrs: inlinehint nounwind uwtable
define internal ptr @Aig_Regular(ptr noundef %0) #2 {
  %2 = alloca ptr, align 8
  store ptr %0, ptr %2, align 8, !tbaa !8
  %3 = load ptr, ptr %2, align 8, !tbaa !8
  %4 = ptrtoint ptr %3 to i64
  %5 = and i64 %4, -2
  %6 = inttoptr i64 %5 to ptr
  ret ptr %6
}

; Function Attrs: inlinehint nounwind uwtable
define internal ptr @Vec_PtrEntry(ptr noundef %0, i32 noundef %1) #2 {
  %3 = alloca ptr, align 8
  %4 = alloca i32, align 4
  store ptr %0, ptr %3, align 8, !tbaa !39
  store i32 %1, ptr %4, align 4, !tbaa !10
  %5 = load ptr, ptr %3, align 8, !tbaa !39
  %6 = getelementptr inbounds nuw %struct.Vec_Ptr_t_, ptr %5, i32 0, i32 2
  %7 = load ptr, ptr %6, align 8, !tbaa !42
  %8 = load i32, ptr %4, align 4, !tbaa !10
  %9 = sext i32 %8 to i64
  %10 = getelementptr inbounds ptr, ptr %7, i64 %9
  %11 = load ptr, ptr %10, align 8, !tbaa !43
  ret ptr %11
}

; Function Attrs: inlinehint nounwind uwtable
define internal i32 @Saig_ManPoNum(ptr noundef %0) #2 {
  %2 = alloca ptr, align 8
  store ptr %0, ptr %2, align 8, !tbaa !3
  %3 = load ptr, ptr %2, align 8, !tbaa !3
  %4 = getelementptr inbounds nuw %struct.Aig_Man_t_, ptr %3, i32 0, i32 10
  %5 = load i32, ptr %4, align 8, !tbaa !44
  ret i32 %5
}

; Function Attrs: inlinehint nounwind uwtable
define internal i32 @Aig_ManCiNum(ptr noundef %0) #2 {
  %2 = alloca ptr, align 8
  store ptr %0, ptr %2, align 8, !tbaa !3
  %3 = load ptr, ptr %2, align 8, !tbaa !3
  %4 = getelementptr inbounds nuw %struct.Aig_Man_t_, ptr %3, i32 0, i32 14
  %5 = getelementptr inbounds [7 x i32], ptr %4, i64 0, i64 2
  %6 = load i32, ptr %5, align 8, !tbaa !10
  ret i32 %6
}

; Function Attrs: inlinehint nounwind uwtable
define internal i32 @Aig_ManCoNum(ptr noundef %0) #2 {
  %2 = alloca ptr, align 8
  store ptr %0, ptr %2, align 8, !tbaa !3
  %3 = load ptr, ptr %2, align 8, !tbaa !3
  %4 = getelementptr inbounds nuw %struct.Aig_Man_t_, ptr %3, i32 0, i32 14
  %5 = getelementptr inbounds [7 x i32], ptr %4, i64 0, i64 3
  %6 = load i32, ptr %5, align 4, !tbaa !10
  ret i32 %6
}

; Function Attrs: inlinehint nounwind uwtable
define internal ptr @Aig_NotCond(ptr noundef %0, i32 noundef %1) #2 {
  %3 = alloca ptr, align 8
  %4 = alloca i32, align 4
  store ptr %0, ptr %3, align 8, !tbaa !8
  store i32 %1, ptr %4, align 4, !tbaa !10
  %5 = load ptr, ptr %3, align 8, !tbaa !8
  %6 = ptrtoint ptr %5 to i64
  %7 = load i32, ptr %4, align 4, !tbaa !10
  %8 = sext i32 %7 to i64
  %9 = xor i64 %6, %8
  %10 = inttoptr i64 %9 to ptr
  ret ptr %10
}

; Function Attrs: inlinehint nounwind uwtable
define internal i32 @Aig_ObjFaninC1(ptr noundef %0) #2 {
  %2 = alloca ptr, align 8
  store ptr %0, ptr %2, align 8, !tbaa !8
  %3 = load ptr, ptr %2, align 8, !tbaa !8
  %4 = getelementptr inbounds nuw %struct.Aig_Obj_t_, ptr %3, i32 0, i32 2
  %5 = load ptr, ptr %4, align 8, !tbaa !26
  %6 = call i32 @Aig_IsComplement(ptr noundef %5)
  ret i32 %6
}

; Function Attrs: inlinehint nounwind uwtable
define internal i32 @Aig_ObjFaninC0(ptr noundef %0) #2 {
  %2 = alloca ptr, align 8
  store ptr %0, ptr %2, align 8, !tbaa !8
  %3 = load ptr, ptr %2, align 8, !tbaa !8
  %4 = getelementptr inbounds nuw %struct.Aig_Obj_t_, ptr %3, i32 0, i32 1
  %5 = load ptr, ptr %4, align 8, !tbaa !25
  %6 = call i32 @Aig_IsComplement(ptr noundef %5)
  ret i32 %6
}

; Function Attrs: inlinehint nounwind uwtable
define internal ptr @Aig_ObjFanin1(ptr noundef %0) #2 {
  %2 = alloca ptr, align 8
  store ptr %0, ptr %2, align 8, !tbaa !8
  %3 = load ptr, ptr %2, align 8, !tbaa !8
  %4 = getelementptr inbounds nuw %struct.Aig_Obj_t_, ptr %3, i32 0, i32 2
  %5 = load ptr, ptr %4, align 8, !tbaa !26
  %6 = call ptr @Aig_Regular(ptr noundef %5)
  ret ptr %6
}

; Function Attrs: inlinehint nounwind uwtable
define internal i32 @Aig_ObjIsNode(ptr noundef %0) #2 {
  %2 = alloca ptr, align 8
  store ptr %0, ptr %2, align 8, !tbaa !8
  %3 = load ptr, ptr %2, align 8, !tbaa !8
  %4 = getelementptr inbounds nuw %struct.Aig_Obj_t_, ptr %3, i32 0, i32 3
  %5 = load i64, ptr %4, align 8
  %6 = and i64 %5, 7
  %7 = trunc i64 %6 to i32
  %8 = icmp eq i32 %7, 5
  br i1 %8, label %16, label %9

9:                                                ; preds = %1
  %10 = load ptr, ptr %2, align 8, !tbaa !8
  %11 = getelementptr inbounds nuw %struct.Aig_Obj_t_, ptr %10, i32 0, i32 3
  %12 = load i64, ptr %11, align 8
  %13 = and i64 %12, 7
  %14 = trunc i64 %13 to i32
  %15 = icmp eq i32 %14, 6
  br label %16

16:                                               ; preds = %9, %1
  %17 = phi i1 [ true, %1 ], [ %15, %9 ]
  %18 = zext i1 %17 to i32
  ret i32 %18
}

; Function Attrs: inlinehint nounwind uwtable
define internal ptr @Aig_ObjFanin0(ptr noundef %0) #2 {
  %2 = alloca ptr, align 8
  store ptr %0, ptr %2, align 8, !tbaa !8
  %3 = load ptr, ptr %2, align 8, !tbaa !8
  %4 = getelementptr inbounds nuw %struct.Aig_Obj_t_, ptr %3, i32 0, i32 1
  %5 = load ptr, ptr %4, align 8, !tbaa !25
  %6 = call ptr @Aig_Regular(ptr noundef %5)
  ret ptr %6
}

; Function Attrs: inlinehint nounwind uwtable
define internal ptr @Saig_ManLi(ptr noundef %0, i32 noundef %1) #2 {
  %3 = alloca ptr, align 8
  %4 = alloca i32, align 4
  store ptr %0, ptr %3, align 8, !tbaa !3
  store i32 %1, ptr %4, align 4, !tbaa !10
  %5 = load ptr, ptr %3, align 8, !tbaa !3
  %6 = getelementptr inbounds nuw %struct.Aig_Man_t_, ptr %5, i32 0, i32 3
  %7 = load ptr, ptr %6, align 8, !tbaa !29
  %8 = load ptr, ptr %3, align 8, !tbaa !3
  %9 = call i32 @Saig_ManPoNum(ptr noundef %8)
  %10 = load i32, ptr %4, align 4, !tbaa !10
  %11 = add nsw i32 %9, %10
  %12 = call ptr @Vec_PtrEntry(ptr noundef %7, i32 noundef %11)
  ret ptr %12
}

; Function Attrs: inlinehint nounwind uwtable
define internal i32 @Saig_ManPiNum(ptr noundef %0) #2 {
  %2 = alloca ptr, align 8
  store ptr %0, ptr %2, align 8, !tbaa !3
  %3 = load ptr, ptr %2, align 8, !tbaa !3
  %4 = getelementptr inbounds nuw %struct.Aig_Man_t_, ptr %3, i32 0, i32 9
  %5 = load i32, ptr %4, align 4, !tbaa !30
  ret i32 %5
}

; Function Attrs: inlinehint nounwind uwtable
define internal i32 @Aig_ObjCioId(ptr noundef %0) #2 {
  %2 = alloca ptr, align 8
  store ptr %0, ptr %2, align 8, !tbaa !8
  %3 = load ptr, ptr %2, align 8, !tbaa !8
  %4 = getelementptr inbounds nuw %struct.Aig_Obj_t_, ptr %3, i32 0, i32 0
  %5 = load i32, ptr %4, align 8, !tbaa !12
  ret i32 %5
}

; Function Attrs: nounwind uwtable
define ptr @Saig_ManRetimeNodeBwd(ptr noundef %0, ptr noundef %1) #0 {
  %3 = alloca ptr, align 8
  %4 = alloca ptr, align 8
  %5 = alloca ptr, align 8
  %6 = alloca ptr, align 8
  %7 = alloca ptr, align 8
  %8 = alloca ptr, align 8
  %9 = alloca ptr, align 8
  %10 = alloca ptr, align 8
  %11 = alloca ptr, align 8
  %12 = alloca ptr, align 8
  %13 = alloca ptr, align 8
  %14 = alloca ptr, align 8
  %15 = alloca i32, align 4
  %16 = alloca i32, align 4
  %17 = alloca i32, align 4
  store ptr %0, ptr %4, align 8, !tbaa !3
  store ptr %1, ptr %5, align 8, !tbaa !8
  call void @llvm.lifetime.start.p0(i64 8, ptr %6) #4
  call void @llvm.lifetime.start.p0(i64 8, ptr %7) #4
  call void @llvm.lifetime.start.p0(i64 8, ptr %8) #4
  call void @llvm.lifetime.start.p0(i64 8, ptr %9) #4
  call void @llvm.lifetime.start.p0(i64 8, ptr %10) #4
  call void @llvm.lifetime.start.p0(i64 8, ptr %11) #4
  call void @llvm.lifetime.start.p0(i64 8, ptr %12) #4
  call void @llvm.lifetime.start.p0(i64 8, ptr %13) #4
  call void @llvm.lifetime.start.p0(i64 8, ptr %14) #4
  call void @llvm.lifetime.start.p0(i64 4, ptr %15) #4
  call void @llvm.lifetime.start.p0(i64 4, ptr %16) #4
  %18 = load ptr, ptr %4, align 8, !tbaa !3
  %19 = load ptr, ptr %5, align 8, !tbaa !8
  %20 = call i32 @Aig_ObjCioId(ptr noundef %19)
  %21 = load ptr, ptr %4, align 8, !tbaa !3
  %22 = call i32 @Saig_ManPiNum(ptr noundef %21)
  %23 = sub nsw i32 %20, %22
  %24 = call ptr @Saig_ManLi(ptr noundef %18, i32 noundef %23)
  store ptr %24, ptr %14, align 8, !tbaa !8
  %25 = load ptr, ptr %14, align 8, !tbaa !8
  %26 = call ptr @Aig_ObjFanin0(ptr noundef %25)
  store ptr %26, ptr %12, align 8, !tbaa !8
  %27 = load ptr, ptr %12, align 8, !tbaa !8
  %28 = call i32 @Aig_ObjIsNode(ptr noundef %27)
  %29 = icmp ne i32 %28, 0
  br i1 %29, label %31, label %30

30:                                               ; preds = %2
  store ptr null, ptr %3, align 8
  store i32 1, ptr %17, align 4
  br label %95

31:                                               ; preds = %2
  %32 = load ptr, ptr %12, align 8, !tbaa !8
  %33 = call ptr @Aig_ObjFanin0(ptr noundef %32)
  store ptr %33, ptr %6, align 8, !tbaa !8
  %34 = load ptr, ptr %12, align 8, !tbaa !8
  %35 = call ptr @Aig_ObjFanin1(ptr noundef %34)
  store ptr %35, ptr %7, align 8, !tbaa !8
  %36 = load ptr, ptr %12, align 8, !tbaa !8
  %37 = call i32 @Aig_ObjFaninC0(ptr noundef %36)
  %38 = load ptr, ptr %14, align 8, !tbaa !8
  %39 = call i32 @Aig_ObjFaninC0(ptr noundef %38)
  %40 = xor i32 %37, %39
  store i32 %40, ptr %15, align 4, !tbaa !10
  %41 = load ptr, ptr %12, align 8, !tbaa !8
  %42 = call i32 @Aig_ObjFaninC1(ptr noundef %41)
  %43 = load ptr, ptr %14, align 8, !tbaa !8
  %44 = call i32 @Aig_ObjFaninC0(ptr noundef %43)
  %45 = xor i32 %42, %44
  store i32 %45, ptr %16, align 4, !tbaa !10
  %46 = load ptr, ptr %4, align 8, !tbaa !3
  %47 = load ptr, ptr %6, align 8, !tbaa !8
  %48 = load i32, ptr %15, align 4, !tbaa !10
  %49 = call ptr @Aig_NotCond(ptr noundef %47, i32 noundef %48)
  %50 = call ptr @Aig_ObjCreateCo(ptr noundef %46, ptr noundef %49)
  store ptr %50, ptr %10, align 8, !tbaa !8
  %51 = load ptr, ptr %4, align 8, !tbaa !3
  %52 = call i32 @Aig_ManCoNum(ptr noundef %51)
  %53 = sub nsw i32 %52, 1
  %54 = load ptr, ptr %10, align 8, !tbaa !8
  %55 = getelementptr inbounds nuw %struct.Aig_Obj_t_, ptr %54, i32 0, i32 0
  store i32 %53, ptr %55, align 8, !tbaa !12
  %56 = load ptr, ptr %4, align 8, !tbaa !3
  %57 = load ptr, ptr %7, align 8, !tbaa !8
  %58 = load i32, ptr %16, align 4, !tbaa !10
  %59 = call ptr @Aig_NotCond(ptr noundef %57, i32 noundef %58)
  %60 = call ptr @Aig_ObjCreateCo(ptr noundef %56, ptr noundef %59)
  store ptr %60, ptr %11, align 8, !tbaa !8
  %61 = load ptr, ptr %4, align 8, !tbaa !3
  %62 = call i32 @Aig_ManCoNum(ptr noundef %61)
  %63 = sub nsw i32 %62, 1
  %64 = load ptr, ptr %11, align 8, !tbaa !8
  %65 = getelementptr inbounds nuw %struct.Aig_Obj_t_, ptr %64, i32 0, i32 0
  store i32 %63, ptr %65, align 8, !tbaa !12
  %66 = load ptr, ptr %4, align 8, !tbaa !3
  %67 = call ptr @Aig_ObjCreateCi(ptr noundef %66)
  store ptr %67, ptr %8, align 8, !tbaa !8
  %68 = load ptr, ptr %4, align 8, !tbaa !3
  %69 = call i32 @Aig_ManCiNum(ptr noundef %68)
  %70 = sub nsw i32 %69, 1
  %71 = load ptr, ptr %8, align 8, !tbaa !8
  %72 = getelementptr inbounds nuw %struct.Aig_Obj_t_, ptr %71, i32 0, i32 0
  store i32 %70, ptr %72, align 8, !tbaa !12
  %73 = load ptr, ptr %4, align 8, !tbaa !3
  %74 = call ptr @Aig_ObjCreateCi(ptr noundef %73)
  store ptr %74, ptr %9, align 8, !tbaa !8
  %75 = load ptr, ptr %4, align 8, !tbaa !3
  %76 = call i32 @Aig_ManCiNum(ptr noundef %75)
  %77 = sub nsw i32 %76, 1
  %78 = load ptr, ptr %9, align 8, !tbaa !8
  %79 = getelementptr inbounds nuw %struct.Aig_Obj_t_, ptr %78, i32 0, i32 0
  store i32 %77, ptr %79, align 8, !tbaa !12
  %80 = load ptr, ptr %8, align 8, !tbaa !8
  %81 = load i32, ptr %15, align 4, !tbaa !10
  %82 = call ptr @Aig_NotCond(ptr noundef %80, i32 noundef %81)
  store ptr %82, ptr %8, align 8, !tbaa !8
  %83 = load ptr, ptr %9, align 8, !tbaa !8
  %84 = load i32, ptr %16, align 4, !tbaa !10
  %85 = call ptr @Aig_NotCond(ptr noundef %83, i32 noundef %84)
  store ptr %85, ptr %9, align 8, !tbaa !8
  %86 = load ptr, ptr %4, align 8, !tbaa !3
  %87 = getelementptr inbounds nuw %struct.Aig_Man_t_, ptr %86, i32 0, i32 8
  %88 = load i32, ptr %87, align 8, !tbaa !13
  %89 = add nsw i32 %88, 2
  store i32 %89, ptr %87, align 8, !tbaa !13
  %90 = load ptr, ptr %4, align 8, !tbaa !3
  %91 = load ptr, ptr %8, align 8, !tbaa !8
  %92 = load ptr, ptr %9, align 8, !tbaa !8
  %93 = call ptr @Aig_And(ptr noundef %90, ptr noundef %91, ptr noundef %92)
  store ptr %93, ptr %13, align 8, !tbaa !8
  %94 = load ptr, ptr %13, align 8, !tbaa !8
  store ptr %94, ptr %3, align 8
  store i32 1, ptr %17, align 4
  br label %95

95:                                               ; preds = %31, %30
  call void @llvm.lifetime.end.p0(i64 4, ptr %16) #4
  call void @llvm.lifetime.end.p0(i64 4, ptr %15) #4
  call void @llvm.lifetime.end.p0(i64 8, ptr %14) #4
  call void @llvm.lifetime.end.p0(i64 8, ptr %13) #4
  call void @llvm.lifetime.end.p0(i64 8, ptr %12) #4
  call void @llvm.lifetime.end.p0(i64 8, ptr %11) #4
  call void @llvm.lifetime.end.p0(i64 8, ptr %10) #4
  call void @llvm.lifetime.end.p0(i64 8, ptr %9) #4
  call void @llvm.lifetime.end.p0(i64 8, ptr %8) #4
  call void @llvm.lifetime.end.p0(i64 8, ptr %7) #4
  call void @llvm.lifetime.end.p0(i64 8, ptr %6) #4
  %96 = load ptr, ptr %3, align 8
  ret ptr %96
}