; Function Attrs: nounwind uwtable
define ptr @Saig_ManRetimeNodeBwd(ptr noundef %0, ptr noundef readonly captures(none) %1) local_unnamed_addr #0 {
  %.val38 = load i32, ptr %1, align 8, !tbaa !11
  %3 = getelementptr i8, ptr %0, i64 108
  %.val39 = load i32, ptr %3, align 4, !tbaa !12
  %4 = sub i32 %.val38, %.val39
  %5 = getelementptr i8, ptr %0, i64 24
  %.val40 = load ptr, ptr %5, align 8, !tbaa !26
  %6 = getelementptr i8, ptr %0, i64 112
  %.val41 = load i32, ptr %6, align 8, !tbaa !27
  %7 = getelementptr i8, ptr %.val40, i64 8
  %.val40.val = load ptr, ptr %7, align 8, !tbaa !28
  %8 = add nsw i32 %4, %.val41
  %9 = sext i32 %8 to i64
  %10 = getelementptr inbounds ptr, ptr %.val40.val, i64 %9
  %11 = load ptr, ptr %10, align 8, !tbaa !30
  %12 = getelementptr i8, ptr %11, i64 8
  %.val36 = load ptr, ptr %12, align 8, !tbaa !3
  %13 = ptrtoint ptr %.val36 to i64
  %14 = and i64 %13, -2
  %15 = inttoptr i64 %14 to ptr
  %16 = getelementptr i8, ptr %15, i64 24
  %.val50 = load i64, ptr %16, align 8
  %17 = trunc i64 %.val50 to i32
  %18 = and i32 %17, 7
  %19 = add nsw i32 %18, -7
  %narrow.i = icmp ult i32 %19, -2
  br i1 %narrow.i, label %54, label %20

20:                                               ; preds = %2
  %21 = getelementptr i8, ptr %15, i64 8
  %.val = load ptr, ptr %21, align 8, !tbaa !3
  %22 = ptrtoint ptr %.val to i64
  %23 = getelementptr i8, ptr %15, i64 16
  %.val37 = load ptr, ptr %23, align 8, !tbaa !10
  %24 = ptrtoint ptr %.val37 to i64
  %25 = xor i64 %22, %13
  %26 = and i64 %25, 1
  %27 = xor i64 %24, %13
  %28 = and i64 %27, 1
  %29 = and i64 %13, 1
  %30 = xor i64 %29, %22
  %31 = inttoptr i64 %30 to ptr
  %32 = tail call ptr @Aig_ObjCreateCo(ptr noundef nonnull %0, ptr noundef %31) #3
  %33 = getelementptr i8, ptr %0, i64 140
  %.val47 = load i32, ptr %33, align 4, !tbaa !31
  %34 = add nsw i32 %.val47, -1
  store i32 %34, ptr %32, align 8, !tbaa !11
  %35 = xor i64 %29, %24
  %36 = inttoptr i64 %35 to ptr
  %37 = tail call ptr @Aig_ObjCreateCo(ptr noundef nonnull %0, ptr noundef %36) #3
  %.val46 = load i32, ptr %33, align 4, !tbaa !31
  %38 = add nsw i32 %.val46, -1
  store i32 %38, ptr %37, align 8, !tbaa !11
  %39 = tail call ptr @Aig_ObjCreateCi(ptr noundef nonnull %0) #3
  %40 = getelementptr i8, ptr %0, i64 136
  %.val49 = load i32, ptr %40, align 8, !tbaa !31
  %41 = add nsw i32 %.val49, -1
  store i32 %41, ptr %39, align 8, !tbaa !11
  %42 = tail call ptr @Aig_ObjCreateCi(ptr noundef nonnull %0) #3
  %.val48 = load i32, ptr %40, align 8, !tbaa !31
  %43 = add nsw i32 %.val48, -1
  store i32 %43, ptr %42, align 8, !tbaa !11
  %44 = ptrtoint ptr %39 to i64
  %45 = xor i64 %26, %44
  %46 = inttoptr i64 %45 to ptr
  %47 = ptrtoint ptr %42 to i64
  %48 = xor i64 %28, %47
  %49 = inttoptr i64 %48 to ptr
  %50 = getelementptr inbounds nuw i8, ptr %0, i64 104
  %51 = load i32, ptr %50, align 8, !tbaa !32
  %52 = add nsw i32 %51, 2
  store i32 %52, ptr %50, align 8, !tbaa !32
  %53 = tail call ptr @Aig_And(ptr noundef nonnull %0, ptr noundef %46, ptr noundef %49) #3
  br label %54

54:                                               ; preds = %2, %20
  %.0 = phi ptr [ %53, %20 ], [ null, %2 ]
  ret ptr %.0
}